target datalayout = "e-m:e-p270:32:32-p271:32:32-p272:64:64-i64:64-i128:128-f80:128-n8:16:32:64-S128"
target triple = "x86_64-pc-linux-gnu"

%struct.pmi2_tree_info = type { ptr, ptr, i32, i32, i32, i32, i16, ptr, ptr }
%struct.buf_t = type { i32, ptr, i32, i32, i8, i8 }

@plugin_type = external constant [0 x i8], align 1
@tree_info = external global %struct.pmi2_tree_info, align 8
@.str.52 = private unnamed_addr constant [44 x i8] c"%s: %s: mpi/pmi2: in _handle_name_unpublish\00", align 1
@__func__._handle_name_unpublish = private unnamed_addr constant [23 x i8] c"_handle_name_unpublish\00", align 1
@.str.53 = private unnamed_addr constant [45 x i8] c"%s: %s: mpi/pmi2: out _handle_name_unpublish\00", align 1

; Function Attrs: nounwind uwtable
define internal i32 @_handle_name_unpublish(i32 noundef %0, ptr noundef %1) #0 {
  %3 = alloca i32, align 4
  %4 = alloca i32, align 4
  %5 = alloca ptr, align 8
  %6 = alloca i32, align 4
  %7 = alloca ptr, align 8
  %8 = alloca ptr, align 8
  %9 = alloca i32, align 4
  %10 = alloca i32, align 4
  store i32 %0, ptr %4, align 4
  store ptr %1, ptr %5, align 8
  call void @llvm.lifetime.start.p0(i64 4, ptr %6) #6
  call void @llvm.lifetime.start.p0(i64 8, ptr %7) #6
  store ptr null, ptr %7, align 8
  call void @llvm.lifetime.start.p0(i64 8, ptr %8) #6
  store ptr null, ptr %8, align 8
  br label %11

11:                                               ; preds = %2
  br label %12

12:                                               ; preds = %11
  %13 = call i32 @slurm_get_log_level()
  %14 = icmp sge i32 %13, 7
  br i1 %14, label %15, label %16

15:                                               ; preds = %12
  call void (i32, ptr, ...) @slurm_log_var(i32 noundef 7, ptr noundef @.str.52, ptr noundef @plugin_type, ptr noundef @__func__._handle_name_unpublish)
  br label %16

16:                                               ; preds = %15, %12
  br label %17

17:                                               ; preds = %16
  br label %18

18:                                               ; preds = %17
  br label %19

19:                                               ; preds = %18
  br label %20

20:                                               ; preds = %19
  br label %21

21:                                               ; preds = %20
  call void @llvm.lifetime.start.p0(i64 4, ptr %9) #6
  %22 = load ptr, ptr %5, align 8
  %23 = call i32 @slurm_unpackstr_xmalloc_chooser(ptr noundef %7, ptr noundef %9, ptr noundef %22)
  %24 = icmp ne i32 %23, 0
  br i1 %24, label %25, label %26

25:                                               ; preds = %21
  store i32 8, ptr %10, align 4
  br label %27

26:                                               ; preds = %21
  store i32 0, ptr %10, align 4
  br label %27

27:                                               ; preds = %25, %26
  call void @llvm.lifetime.end.p0(i64 4, ptr %9) #6
  %28 = load i32, ptr %10, align 4
  switch i32 %28, label %75 [
    i32 0, label %29
    i32 8, label %74
  ]

29:                                               ; preds = %27
  br label %30

30:                                               ; preds = %29
  br label %31

31:                                               ; preds = %30
  %32 = load ptr, ptr getelementptr inbounds nuw (%struct.pmi2_tree_info, ptr @tree_info, i32 0, i32 7), align 8
  %33 = icmp ne ptr %32, null
  br i1 %33, label %34, label %37

34:                                               ; preds = %31
  %35 = load ptr, ptr %7, align 8
  %36 = call i32 @name_unpublish_up(ptr noundef %35)
  store i32 %36, ptr %6, align 4
  br label %40

37:                                               ; preds = %31
  %38 = load ptr, ptr %7, align 8
  %39 = call i32 @name_unpublish_local(ptr noundef %38)
  store i32 %39, ptr %6, align 4
  br label %40

40:                                               ; preds = %37, %34
  br label %41

41:                                               ; preds = %74, %40
  call void @slurm_xfree(ptr noundef %7)
  %42 = call ptr @slurm_init_buf(i32 noundef 32)
  store ptr %42, ptr %8, align 8
  %43 = load i32, ptr %6, align 4
  %44 = load ptr, ptr %8, align 8
  call void @slurm_pack32(i32 noundef %43, ptr noundef %44)
  %45 = load i32, ptr %4, align 4
  %46 = load ptr, ptr %8, align 8
  %47 = getelementptr inbounds nuw %struct.buf_t, ptr %46, i32 0, i32 1
  %48 = load ptr, ptr %47, align 8
  %49 = load ptr, ptr %8, align 8
  %50 = getelementptr inbounds nuw %struct.buf_t, ptr %49, i32 0, i32 3
  %51 = load i32, ptr %50, align 4
  %52 = zext i32 %51 to i64
  %53 = call i64 @slurm_msg_sendto(i32 noundef %45, ptr noundef %48, i64 noundef %52)
  %54 = trunc i64 %53 to i32
  store i32 %54, ptr %6, align 4
  br label %55

55:                                               ; preds = %41
  %56 = load ptr, ptr %8, align 8
  %57 = icmp ne ptr %56, null
  br i1 %57, label %58, label %60

58:                                               ; preds = %55
  %59 = load ptr, ptr %8, align 8
  call void @slurm_free_buf(ptr noundef %59)
  br label %60

60:                                               ; preds = %58, %55
  store ptr null, ptr %8, align 8
  br label %61

61:                                               ; preds = %60
  br label %62

62:                                               ; preds = %61
  br label %63

63:                                               ; preds = %62
  br label %64

64:                                               ; preds = %63
  %65 = call i32 @slurm_get_log_level()
  %66 = icmp sge i32 %65, 7
  br i1 %66, label %67, label %68

67:                                               ; preds = %64
  call void (i32, ptr, ...) @slurm_log_var(i32 noundef 7, ptr noundef @.str.53, ptr noundef @plugin_type, ptr noundef @__func__._handle_name_unpublish)
  br label %68

68:                                               ; preds = %67, %64
  br label %69

69:                                               ; preds = %68
  br label %70

70:                                               ; preds = %69
  br label %71

71:                                               ; preds = %70
  br label %72

72:                                               ; preds = %71
  %73 = load i32, ptr %6, align 4
  store i32 %73, ptr %3, align 4
  store i32 1, ptr %10, align 4
  br label %75

74:                                               ; preds = %27
  store i32 -1, ptr %6, align 4
  br label %41

75:                                               ; preds = %72, %27
  call void @llvm.lifetime.end.p0(i64 8, ptr %8) #6
  call void @llvm.lifetime.end.p0(i64 8, ptr %7) #6
  call void @llvm.lifetime.end.p0(i64 4, ptr %6) #6
  %76 = load i32, ptr %3, align 4
  ret i32 %76
}