; Function Attrs: nounwind uwtable
define internal i32 @_handle_name_unpublish(i32 noundef %0, ptr noundef %1) #0 {
  %3 = alloca ptr, align 8
  %4 = alloca i32, align 4
  call void @llvm.lifetime.start.p0(i64 8, ptr nonnull %3) #7
  store ptr null, ptr %3, align 8
  %5 = tail call i32 @slurm_get_log_level() #7
  %6 = icmp sgt i32 %5, 6
  br i1 %6, label %7, label %8

7:                                                ; preds = %2
  tail call void (i32, ptr, ...) @slurm_log_var(i32 noundef 7, ptr noundef nonnull @.str.52, ptr noundef nonnull @plugin_type, ptr noundef nonnull @__func__._handle_name_unpublish) #7
  br label %8

8:                                                ; preds = %2, %7
  call void @llvm.lifetime.start.p0(i64 4, ptr nonnull %4) #7
  %9 = call i32 @slurm_unpackstr_xmalloc_chooser(ptr noundef nonnull %3, ptr noundef nonnull %4, ptr noundef %1) #7
  %.not = icmp eq i32 %9, 0
  call void @llvm.lifetime.end.p0(i64 4, ptr nonnull %4) #7
  br i1 %.not, label %10, label %17

10:                                               ; preds = %8
  %11 = load ptr, ptr getelementptr inbounds nuw (i8, ptr @tree_info, i64 40), align 8
  %.not13 = icmp eq ptr %11, null
  %12 = load ptr, ptr %3, align 8
  br i1 %.not13, label %15, label %13

13:                                               ; preds = %10
  %14 = call i32 @name_unpublish_up(ptr noundef %12) #7
  br label %17

15:                                               ; preds = %10
  %16 = call i32 @name_unpublish_local(ptr noundef %12) #7
  br label %17

17:                                               ; preds = %8, %13, %15
  %.010 = phi i32 [ %14, %13 ], [ %16, %15 ], [ -1, %8 ]
  call void @slurm_xfree(ptr noundef nonnull %3) #7
  %18 = call ptr @slurm_init_buf(i32 noundef 32) #7
  call void @slurm_pack32(i32 noundef %.010, ptr noundef %18) #7
  %19 = getelementptr inbounds nuw i8, ptr %18, i64 8
  %20 = load ptr, ptr %19, align 8
  %21 = getelementptr inbounds nuw i8, ptr %18, i64 20
  %22 = load i32, ptr %21, align 4
  %23 = zext i32 %22 to i64
  %24 = call i64 @slurm_msg_sendto(i32 noundef %0, ptr noundef %20, i64 noundef %23) #7
  call void @slurm_free_buf(ptr noundef nonnull %18) #7
  %25 = call i32 @slurm_get_log_level() #7
  %26 = icmp sgt i32 %25, 6
  br i1 %26, label %27, label %28

27:                                               ; preds = %17
  call void (i32, ptr, ...) @slurm_log_var(i32 noundef 7, ptr noundef nonnull @.str.53, ptr noundef nonnull @plugin_type, ptr noundef nonnull @__func__._handle_name_unpublish) #7
  br label %28

28:                                               ; preds = %17, %27
  %29 = trunc i64 %24 to i32
  call void @llvm.lifetime.end.p0(i64 8, ptr nonnull %3) #7
  ret i32 %29
}